; Function Attrs: nounwind uwtable
define hidden i32 @mbedtls_ecdh_compute_shared(ptr noundef %0, ptr noundef %1, ptr noundef %2, ptr noundef %3, ptr noundef %4, ptr noundef %5) local_unnamed_addr #1 {
  %7 = alloca %struct.mbedtls_ecp_point, align 8
  call void @llvm.lifetime.start.p0(i64 48, ptr nonnull %7) #7
  call void @mbedtls_ecp_point_init(ptr noundef nonnull %7) #7
  %8 = call i32 @mbedtls_ecp_mul_restartable(ptr noundef %0, ptr noundef nonnull %7, ptr noundef %3, ptr noundef %2, ptr noundef %4, ptr noundef %5, ptr noundef null) #7
  %.not.i = icmp eq i32 %8, 0
  br i1 %.not.i, label %9, label %ecdh_compute_shared_restartable.exit

9:                                                ; preds = %6
  %10 = call i32 @mbedtls_ecp_is_zero(ptr noundef nonnull %7) #7
  %.not8.i = icmp eq i32 %10, 0
  br i1 %.not8.i, label %11, label %ecdh_compute_shared_restartable.exit

11:                                               ; preds = %9
  %12 = call i32 @mbedtls_mpi_copy(ptr noundef %1, ptr noundef nonnull %7) #7
  br label %ecdh_compute_shared_restartable.exit

ecdh_compute_shared_restartable.exit:             ; preds = %6, %9, %11
  %.0.i = phi i32 [ %8, %6 ], [ %12, %11 ], [ -20352, %9 ]
  call void @mbedtls_ecp_point_free(ptr noundef nonnull %7) #7
  call void @llvm.lifetime.end.p0(i64 48, ptr nonnull %7) #7
  ret i32 %.0.i
}